target datalayout = "e-m:e-p270:32:32-p271:32:32-p272:64:64-i64:64-i128:128-f80:128-n8:16:32:64-S128"
target triple = "x86_64-pc-linux-gnu"

%struct.buf_t = type { i32, ptr, i32, i32, i8, i8 }

@plugin_type = dso_local constant [20 x i8] c"job_container/tmpfs\00", align 16
@.str.12 = private unnamed_addr constant [53 x i8] c"%s: %s: %s:%d: %s: safe_write (%zu of %d) failed: %m\00", align 1
@__func__.container_p_send_stepd = private unnamed_addr constant [23 x i8] c"container_p_send_stepd\00", align 1
@.str.13 = private unnamed_addr constant [22 x i8] c"job_container_tmpfs.c\00", align 1
@.str.14 = private unnamed_addr constant [56 x i8] c"%s: %s: %s:%d: %s: safe_write (%zu of %d) partial write\00", align 1
@.str.15 = private unnamed_addr constant [11 x i8] c"%s: failed\00", align 1

; Function Attrs: nounwind uwtable
define dso_local i32 @container_p_send_stepd(i32 noundef %0) #0 {
  %2 = alloca i32, align 4
  %3 = alloca i32, align 4
  %4 = alloca i32, align 4
  %5 = alloca ptr, align 8
  %6 = alloca i64, align 8
  %7 = alloca ptr, align 8
  %8 = alloca i32, align 4
  %9 = alloca i32, align 4
  %10 = alloca i64, align 8
  %11 = alloca ptr, align 8
  %12 = alloca i32, align 4
  store i32 %0, ptr %3, align 4
  call void @llvm.lifetime.start.p0(i64 4, ptr %4) #8
  call void @llvm.lifetime.start.p0(i64 8, ptr %5) #8
  %13 = call ptr @get_slurm_jc_conf_buf()
  store ptr %13, ptr %5, align 8
  %14 = load ptr, ptr %5, align 8
  %15 = getelementptr inbounds nuw %struct.buf_t, ptr %14, i32 0, i32 3
  %16 = load i32, ptr %15, align 4
  store i32 %16, ptr %4, align 4
  br label %17

17:                                               ; preds = %1
  call void @llvm.lifetime.start.p0(i64 8, ptr %6) #8
  store i64 4, ptr %6, align 8
  call void @llvm.lifetime.start.p0(i64 8, ptr %7) #8
  store ptr %4, ptr %7, align 8
  call void @llvm.lifetime.start.p0(i64 4, ptr %8) #8
  br label %18

18:                                               ; preds = %74, %37, %17
  %19 = load i64, ptr %6, align 8
  %20 = icmp ugt i64 %19, 0
  br i1 %20, label %21, label %75

21:                                               ; preds = %18
  %22 = load i32, ptr %3, align 4
  %23 = load ptr, ptr %7, align 8
  %24 = load i64, ptr %6, align 8
  %25 = call i64 @write(i32 noundef %22, ptr noundef %23, i64 noundef %24)
  %26 = trunc i64 %25 to i32
  store i32 %26, ptr %8, align 4
  %27 = load i32, ptr %8, align 4
  %28 = icmp slt i32 %27, 0
  br i1 %28, label %29, label %50

29:                                               ; preds = %21
  %30 = call ptr @__errno_location() #9
  %31 = load i32, ptr %30, align 4
  %32 = icmp eq i32 %31, 11
  br i1 %32, label %37, label %33

33:                                               ; preds = %29
  %34 = call ptr @__errno_location() #9
  %35 = load i32, ptr %34, align 4
  %36 = icmp eq i32 %35, 4
  br i1 %36, label %37, label %38

37:                                               ; preds = %33, %29
  br label %18, !llvm.loop !13

38:                                               ; preds = %33
  br label %39

39:                                               ; preds = %38
  br label %40

40:                                               ; preds = %39
  %41 = call i32 @slurm_get_log_level()
  %42 = icmp sge i32 %41, 5
  br i1 %42, label %43, label %45

43:                                               ; preds = %40
  %44 = load i64, ptr %6, align 8
  call void (i32, ptr, ...) @slurm_log_var(i32 noundef 5, ptr noundef @.str.12, ptr noundef @plugin_type, ptr noundef @__func__.container_p_send_stepd, ptr noundef @.str.13, i32 noundef 892, ptr noundef @__func__.container_p_send_stepd, i64 noundef %44, i32 noundef 4)
  br label %45

45:                                               ; preds = %43, %40
  br label %46

46:                                               ; preds = %45
  br label %47

47:                                               ; preds = %46
  br label %48

48:                                               ; preds = %47
  br label %49

49:                                               ; preds = %48
  store i32 10, ptr %9, align 4
  br label %76

50:                                               ; preds = %21
  %51 = load i32, ptr %8, align 4
  %52 = load ptr, ptr %7, align 8
  %53 = sext i32 %51 to i64
  %54 = getelementptr inbounds i8, ptr %52, i64 %53
  store ptr %54, ptr %7, align 8
  %55 = load i32, ptr %8, align 4
  %56 = sext i32 %55 to i64
  %57 = load i64, ptr %6, align 8
  %58 = sub i64 %57, %56
  store i64 %58, ptr %6, align 8
  %59 = load i64, ptr %6, align 8
  %60 = icmp ugt i64 %59, 0
  br i1 %60, label %61, label %73

61:                                               ; preds = %50
  br label %62

62:                                               ; preds = %61
  br label %63

63:                                               ; preds = %62
  %64 = call i32 @slurm_get_log_level()
  %65 = icmp sge i32 %64, 7
  br i1 %65, label %66, label %68

66:                                               ; preds = %63
  %67 = load i64, ptr %6, align 8
  call void (i32, ptr, ...) @slurm_log_var(i32 noundef 7, ptr noundef @.str.14, ptr noundef @plugin_type, ptr noundef @__func__.container_p_send_stepd, ptr noundef @.str.13, i32 noundef 892, ptr noundef @__func__.container_p_send_stepd, i64 noundef %67, i32 noundef 4)
  br label %68

68:                                               ; preds = %66, %63
  br label %69

69:                                               ; preds = %68
  br label %70

70:                                               ; preds = %69
  br label %71

71:                                               ; preds = %70
  br label %72

72:                                               ; preds = %71
  br label %73

73:                                               ; preds = %72, %50
  br label %74

74:                                               ; preds = %73
  br label %18, !llvm.loop !13

75:                                               ; preds = %18
  store i32 0, ptr %9, align 4
  br label %76

76:                                               ; preds = %49, %75
  call void @llvm.lifetime.end.p0(i64 4, ptr %8) #8
  call void @llvm.lifetime.end.p0(i64 8, ptr %7) #8
  call void @llvm.lifetime.end.p0(i64 8, ptr %6) #8
  %77 = load i32, ptr %9, align 4
  switch i32 %77, label %154 [
    i32 0, label %78
    i32 10, label %152
  ]

78:                                               ; preds = %76
  br label %79

79:                                               ; preds = %78
  br label %80

80:                                               ; preds = %79
  br label %81

81:                                               ; preds = %80
  call void @llvm.lifetime.start.p0(i64 8, ptr %10) #8
  %82 = load i32, ptr %4, align 4
  %83 = sext i32 %82 to i64
  store i64 %83, ptr %10, align 8
  call void @llvm.lifetime.start.p0(i64 8, ptr %11) #8
  %84 = load ptr, ptr %5, align 8
  %85 = getelementptr inbounds nuw %struct.buf_t, ptr %84, i32 0, i32 1
  %86 = load ptr, ptr %85, align 8
  store ptr %86, ptr %11, align 8
  call void @llvm.lifetime.start.p0(i64 4, ptr %12) #8
  br label %87

87:                                               ; preds = %145, %106, %81
  %88 = load i64, ptr %10, align 8
  %89 = icmp ugt i64 %88, 0
  br i1 %89, label %90, label %146

90:                                               ; preds = %87
  %91 = load i32, ptr %3, align 4
  %92 = load ptr, ptr %11, align 8
  %93 = load i64, ptr %10, align 8
  %94 = call i64 @write(i32 noundef %91, ptr noundef %92, i64 noundef %93)
  %95 = trunc i64 %94 to i32
  store i32 %95, ptr %12, align 4
  %96 = load i32, ptr %12, align 4
  %97 = icmp slt i32 %96, 0
  br i1 %97, label %98, label %120

98:                                               ; preds = %90
  %99 = call ptr @__errno_location() #9
  %100 = load i32, ptr %99, align 4
  %101 = icmp eq i32 %100, 11
  br i1 %101, label %106, label %102

102:                                              ; preds = %98
  %103 = call ptr @__errno_location() #9
  %104 = load i32, ptr %103, align 4
  %105 = icmp eq i32 %104, 4
  br i1 %105, label %106, label %107

106:                                              ; preds = %102, %98
  br label %87, !llvm.loop !14

107:                                              ; preds = %102
  br label %108

108:                                              ; preds = %107
  br label %109

109:                                              ; preds = %108
  %110 = call i32 @slurm_get_log_level()
  %111 = icmp sge i32 %110, 5
  br i1 %111, label %112, label %115

112:                                              ; preds = %109
  %113 = load i64, ptr %10, align 8
  %114 = load i32, ptr %4, align 4
  call void (i32, ptr, ...) @slurm_log_var(i32 noundef 5, ptr noundef @.str.12, ptr noundef @plugin_type, ptr noundef @__func__.container_p_send_stepd, ptr noundef @.str.13, i32 noundef 893, ptr noundef @__func__.container_p_send_stepd, i64 noundef %113, i32 noundef %114)
  br label %115

115:                                              ; preds = %112, %109
  br label %116

116:                                              ; preds = %115
  br label %117

117:                                              ; preds = %116
  br label %118

118:                                              ; preds = %117
  br label %119

119:                                              ; preds = %118
  store i32 10, ptr %9, align 4
  br label %147

120:                                              ; preds = %90
  %121 = load i32, ptr %12, align 4
  %122 = load ptr, ptr %11, align 8
  %123 = sext i32 %121 to i64
  %124 = getelementptr inbounds i8, ptr %122, i64 %123
  store ptr %124, ptr %11, align 8
  %125 = load i32, ptr %12, align 4
  %126 = sext i32 %125 to i64
  %127 = load i64, ptr %10, align 8
  %128 = sub i64 %127, %126
  store i64 %128, ptr %10, align 8
  %129 = load i64, ptr %10, align 8
  %130 = icmp ugt i64 %129, 0
  br i1 %130, label %131, label %144

131:                                              ; preds = %120
  br label %132

132:                                              ; preds = %131
  br label %133

133:                                              ; preds = %132
  %134 = call i32 @slurm_get_log_level()
  %135 = icmp sge i32 %134, 7
  br i1 %135, label %136, label %139

136:                                              ; preds = %133
  %137 = load i64, ptr %10, align 8
  %138 = load i32, ptr %4, align 4
  call void (i32, ptr, ...) @slurm_log_var(i32 noundef 7, ptr noundef @.str.14, ptr noundef @plugin_type, ptr noundef @__func__.container_p_send_stepd, ptr noundef @.str.13, i32 noundef 893, ptr noundef @__func__.container_p_send_stepd, i64 noundef %137, i32 noundef %138)
  br label %139

139:                                              ; preds = %136, %133
  br label %140

140:                                              ; preds = %139
  br label %141

141:                                              ; preds = %140
  br label %142

142:                                              ; preds = %141
  br label %143

143:                                              ; preds = %142
  br label %144

144:                                              ; preds = %143, %120
  br label %145

145:                                              ; preds = %144
  br label %87, !llvm.loop !14

146:                                              ; preds = %87
  store i32 0, ptr %9, align 4
  br label %147

147:                                              ; preds = %119, %146
  call void @llvm.lifetime.end.p0(i64 4, ptr %12) #8
  call void @llvm.lifetime.end.p0(i64 8, ptr %11) #8
  call void @llvm.lifetime.end.p0(i64 8, ptr %10) #8
  %148 = load i32, ptr %9, align 4
  switch i32 %148, label %154 [
    i32 0, label %149
    i32 10, label %152
  ]

149:                                              ; preds = %147
  br label %150

150:                                              ; preds = %149
  br label %151

151:                                              ; preds = %150
  store i32 0, ptr %2, align 4
  store i32 1, ptr %9, align 4
  br label %154

152:                                              ; preds = %147, %76
  %153 = call i32 (ptr, ...) @slurm_error(ptr noundef @.str.15, ptr noundef @__func__.container_p_send_stepd)
  store i32 -1, ptr %2, align 4
  store i32 1, ptr %9, align 4
  br label %154

154:                                              ; preds = %152, %151, %147, %76
  call void @llvm.lifetime.end.p0(i64 8, ptr %5) #8
  call void @llvm.lifetime.end.p0(i64 4, ptr %4) #8
  %155 = load i32, ptr %2, align 4
  ret i32 %155
}