; Function Attrs: nounwind uwtable
define dso_local range(i32 -1, 1) i32 @container_p_send_stepd(i32 noundef %0) local_unnamed_addr #0 {
  %2 = alloca i32, align 4
  call void @llvm.lifetime.start.p0(i64 4, ptr nonnull %2) #12
  %3 = tail call ptr @get_slurm_jc_conf_buf() #12
  %4 = getelementptr inbounds nuw i8, ptr %3, i64 20
  %5 = load i32, ptr %4, align 4
  store i32 %5, ptr %2, align 4
  br label %.lr.ph.split

.lr.ph.split:                                     ; preds = %.lr.ph.split.backedge, %1
  %.031.ph65 = phi i64 [ 4, %1 ], [ %19, %.lr.ph.split.backedge ]
  %.032.ph63 = phi ptr [ %2, %1 ], [ %18, %.lr.ph.split.backedge ]
  %6 = call i64 @write(i32 noundef %0, ptr noundef %.032.ph63, i64 noundef %.031.ph65) #12
  %7 = and i64 %6, 2147483648
  %.not3961 = icmp eq i64 %7, 0
  br i1 %.not3961, label %.split.us, label %.lr.ph62

.lr.ph62:                                         ; preds = %.lr.ph.split
  %8 = tail call ptr @__errno_location() #13
  br label %9

9:                                                ; preds = %.lr.ph62, %11
  %10 = load i32, ptr %8, align 4
  switch i32 %10, label %.split56.us [
    i32 11, label %11
    i32 4, label %11
  ]

11:                                               ; preds = %9, %9
  %12 = call i64 @write(i32 noundef %0, ptr noundef %.032.ph63, i64 noundef %.031.ph65) #12
  %13 = and i64 %12, 2147483648
  %.not39 = icmp eq i64 %13, 0
  br i1 %.not39, label %.split.us, label %9

.split56.us:                                      ; preds = %9
  %14 = tail call i32 @slurm_get_log_level() #12
  %15 = icmp sgt i32 %14, 4
  br i1 %15, label %16, label %.thread

16:                                               ; preds = %.split56.us
  tail call void (i32, ptr, ...) @slurm_log_var(i32 noundef 5, ptr noundef nonnull @.str.12, ptr noundef nonnull @plugin_type, ptr noundef nonnull @__func__.container_p_send_stepd, ptr noundef nonnull @.str.13, i32 noundef 892, ptr noundef nonnull @__func__.container_p_send_stepd, i64 noundef %.031.ph65, i32 noundef 4) #12
  br label %.thread

.split.us:                                        ; preds = %11, %.lr.ph.split
  %.us-phi = phi i64 [ %6, %.lr.ph.split ], [ %12, %11 ]
  %17 = and i64 %.us-phi, 2147483647
  %18 = getelementptr inbounds nuw i8, ptr %.032.ph63, i64 %17
  %19 = sub i64 %.031.ph65, %17
  %.not40 = icmp eq i64 %19, 0
  br i1 %.not40, label %.outer49._crit_edge, label %20

20:                                               ; preds = %.split.us
  %21 = tail call i32 @slurm_get_log_level() #12
  %22 = icmp sgt i32 %21, 6
  br i1 %22, label %23, label %.lr.ph.split.backedge

23:                                               ; preds = %20
  tail call void (i32, ptr, ...) @slurm_log_var(i32 noundef 7, ptr noundef nonnull @.str.14, ptr noundef nonnull @plugin_type, ptr noundef nonnull @__func__.container_p_send_stepd, ptr noundef nonnull @.str.13, i32 noundef 892, ptr noundef nonnull @__func__.container_p_send_stepd, i64 noundef %19, i32 noundef 4) #12
  br label %.lr.ph.split.backedge

.lr.ph.split.backedge:                            ; preds = %23, %20
  br label %.lr.ph.split, !llvm.loop !13

.outer49._crit_edge:                              ; preds = %.split.us
  %.not4181 = icmp eq i32 %5, 0
  br i1 %.not4181, label %.loopexit, label %.lr.ph68.preheader

.lr.ph68.preheader:                               ; preds = %.outer49._crit_edge
  %24 = getelementptr inbounds nuw i8, ptr %3, i64 8
  %25 = load ptr, ptr %24, align 8
  %26 = sext i32 %5 to i64
  br label %.lr.ph68.split

.lr.ph68.split:                                   ; preds = %.lr.ph68.split.backedge, %.lr.ph68.preheader
  %.028.ph84 = phi ptr [ %25, %.lr.ph68.preheader ], [ %39, %.lr.ph68.split.backedge ]
  %.029.ph82 = phi i64 [ %26, %.lr.ph68.preheader ], [ %40, %.lr.ph68.split.backedge ]
  %27 = tail call i64 @write(i32 noundef %0, ptr noundef %.028.ph84, i64 noundef %.029.ph82) #12
  %28 = and i64 %27, 2147483648
  %.not4278 = icmp eq i64 %28, 0
  br i1 %.not4278, label %.split70.us, label %.lr.ph79

.lr.ph79:                                         ; preds = %.lr.ph68.split
  %29 = tail call ptr @__errno_location() #13
  br label %30

30:                                               ; preds = %.lr.ph79, %32
  %31 = load i32, ptr %29, align 4
  switch i32 %31, label %.split73.us [
    i32 11, label %32
    i32 4, label %32
  ]

32:                                               ; preds = %30, %30
  %33 = tail call i64 @write(i32 noundef %0, ptr noundef %.028.ph84, i64 noundef %.029.ph82) #12
  %34 = and i64 %33, 2147483648
  %.not42 = icmp eq i64 %34, 0
  br i1 %.not42, label %.split70.us, label %30

.split73.us:                                      ; preds = %30
  %35 = tail call i32 @slurm_get_log_level() #12
  %36 = icmp sgt i32 %35, 4
  br i1 %36, label %37, label %.thread

37:                                               ; preds = %.split73.us
  tail call void (i32, ptr, ...) @slurm_log_var(i32 noundef 5, ptr noundef nonnull @.str.12, ptr noundef nonnull @plugin_type, ptr noundef nonnull @__func__.container_p_send_stepd, ptr noundef nonnull @.str.13, i32 noundef 893, ptr noundef nonnull @__func__.container_p_send_stepd, i64 noundef %.029.ph82, i32 noundef %5) #12
  br label %.thread

.split70.us:                                      ; preds = %32, %.lr.ph68.split
  %.us-phi71 = phi i64 [ %27, %.lr.ph68.split ], [ %33, %32 ]
  %38 = and i64 %.us-phi71, 2147483647
  %39 = getelementptr inbounds nuw i8, ptr %.028.ph84, i64 %38
  %40 = sub i64 %.029.ph82, %38
  %.not43 = icmp eq i64 %40, 0
  br i1 %.not43, label %.loopexit, label %41

41:                                               ; preds = %.split70.us
  %42 = tail call i32 @slurm_get_log_level() #12
  %43 = icmp sgt i32 %42, 6
  br i1 %43, label %44, label %.lr.ph68.split.backedge

44:                                               ; preds = %41
  tail call void (i32, ptr, ...) @slurm_log_var(i32 noundef 7, ptr noundef nonnull @.str.14, ptr noundef nonnull @plugin_type, ptr noundef nonnull @__func__.container_p_send_stepd, ptr noundef nonnull @.str.13, i32 noundef 893, ptr noundef nonnull @__func__.container_p_send_stepd, i64 noundef %40, i32 noundef %5) #12
  br label %.lr.ph68.split.backedge

.lr.ph68.split.backedge:                          ; preds = %44, %41
  br label %.lr.ph68.split, !llvm.loop !14

.thread:                                          ; preds = %.split73.us, %37, %.split56.us, %16
  %45 = tail call i32 (ptr, ...) @slurm_error(ptr noundef nonnull @.str.15, ptr noundef nonnull @__func__.container_p_send_stepd) #12
  br label %.loopexit

.loopexit:                                        ; preds = %.split70.us, %.outer49._crit_edge, %.thread
  %.0 = phi i32 [ -1, %.thread ], [ 0, %.outer49._crit_edge ], [ 0, %.split70.us ]
  call void @llvm.lifetime.end.p0(i64 4, ptr nonnull %2) #12
  ret i32 %.0
}